; Function Attrs: mustprogress nounwind uwtable
define internal void @_ZN12_GLOBAL__N_116VarArgHelperBase16visitVAStartInstERN4llvm11VAStartInstE(ptr noundef nonnull align 8 dereferenceable(180) %0, ptr noundef nonnull align 8 dereferenceable(88) %1) unnamed_addr #0 align 2 {
  %3 = getelementptr inbounds nuw i8, ptr %0, i64 8
  %4 = load ptr, ptr %3, align 8
  %5 = getelementptr inbounds nuw i8, ptr %4, i64 2
  %6 = load i16, ptr %5, align 2
  %7 = and i16 %6, 16368
  %8 = icmp eq i16 %7, 1264
  br i1 %8, label %22, label %9

9:                                                ; preds = %2
  %10 = getelementptr inbounds nuw i8, ptr %0, i64 32
  %11 = tail call noundef i64 @_ZNK4llvm15SmallVectorBaseIjE4sizeEv(ptr noundef nonnull align 8 dereferenceable(16) %10) #23
  %12 = add i64 %11, 1
  %13 = tail call noundef i64 @_ZNK4llvm15SmallVectorBaseIjE8capacityEv(ptr noundef nonnull align 8 dereferenceable(16) %10) #23
  %.not.i.i.i = icmp ugt i64 %12, %13
  br i1 %.not.i.i.i, label %14, label %_ZN4llvm23SmallVectorTemplateBaseIPNS_8CallInstELb1EE9push_backES2_.exit

14:                                               ; preds = %9
  %15 = getelementptr inbounds i8, ptr %0, i64 48
  tail call void @_ZN4llvm15SmallVectorBaseIjE8grow_podEPvmm(ptr noundef nonnull align 8 dereferenceable(16) %10, ptr noundef nonnull %15, i64 noundef %12, i64 noundef 8) #23
  br label %_ZN4llvm23SmallVectorTemplateBaseIPNS_8CallInstELb1EE9push_backES2_.exit

_ZN4llvm23SmallVectorTemplateBaseIPNS_8CallInstELb1EE9push_backES2_.exit: ; preds = %9, %14
  %16 = load ptr, ptr %10, align 8
  %17 = tail call noundef i64 @_ZNK4llvm15SmallVectorBaseIjE4sizeEv(ptr noundef nonnull align 8 dereferenceable(16) %10) #23
  %18 = getelementptr inbounds ptr, ptr %16, i64 %17
  %19 = ptrtoint ptr %1 to i64
  store i64 %19, ptr %18, align 1
  %20 = tail call noundef i64 @_ZNK4llvm15SmallVectorBaseIjE4sizeEv(ptr noundef nonnull align 8 dereferenceable(16) %10) #23
  %21 = add i64 %20, 1
  tail call void @_ZN4llvm15SmallVectorBaseIjE8set_sizeEm(ptr noundef nonnull align 8 dereferenceable(16) %10, i64 noundef %21) #23
  tail call fastcc void @_ZN12_GLOBAL__N_116VarArgHelperBase24unpoisonVAListTagForInstERN4llvm13IntrinsicInstE(ptr noundef nonnull align 8 dereferenceable(180) %0, ptr noundef nonnull align 8 dereferenceable(88) %1)
  br label %22

22:                                               ; preds = %2, %_ZN4llvm23SmallVectorTemplateBaseIPNS_8CallInstELb1EE9push_backES2_.exit
  ret void
}